; Function Attrs: mustprogress uwtable
define void @_ZN2cv6detail12DisjointSets17createOneElemSetsEi(ptr noundef nonnull align 8 dereferenceable(72) %0, i32 noundef %1) local_unnamed_addr #3 align 2 personality ptr @__gxx_personality_v0 {
  %3 = alloca i32, align 4
  %4 = alloca i32, align 4
  %5 = getelementptr inbounds nuw i8, ptr %0, i64 48
  %6 = sext i32 %1 to i64
  call void @llvm.lifetime.start.p0(i64 4, ptr nonnull %3) #18
  store i32 0, ptr %3, align 4, !tbaa !3
  call void @_ZNSt6vectorIiSaIiEE14_M_fill_assignEmRKi(ptr noundef nonnull align 8 dereferenceable(24) %5, i64 noundef %6, ptr noundef nonnull align 4 dereferenceable(4) %3)
  call void @llvm.lifetime.end.p0(i64 4, ptr nonnull %3) #18
  %7 = getelementptr inbounds nuw i8, ptr %0, i64 24
  call void @llvm.lifetime.start.p0(i64 4, ptr nonnull %4) #18
  store i32 1, ptr %4, align 4, !tbaa !3
  call void @_ZNSt6vectorIiSaIiEE14_M_fill_assignEmRKi(ptr noundef nonnull align 8 dereferenceable(24) %7, i64 noundef %6, ptr noundef nonnull align 4 dereferenceable(4) %4)
  call void @llvm.lifetime.end.p0(i64 4, ptr nonnull %4) #18
  %8 = getelementptr inbounds nuw i8, ptr %0, i64 8
  %9 = load ptr, ptr %8, align 8, !tbaa !7
  %10 = load ptr, ptr %0, align 8, !tbaa !11
  %11 = ptrtoint ptr %9 to i64
  %12 = ptrtoint ptr %10 to i64
  %13 = sub i64 %11, %12
  %14 = ashr exact i64 %13, 2
  %15 = icmp ult i64 %14, %6
  br i1 %15, label %16, label %18

16:                                               ; preds = %2
  %17 = sub nuw nsw i64 %6, %14
  call void @_ZNSt6vectorIiSaIiEE17_M_default_appendEm(ptr noundef nonnull align 8 dereferenceable(24) %0, i64 noundef %17)
  br label %_ZNSt6vectorIiSaIiEE6resizeEm.exit

18:                                               ; preds = %2
  %19 = icmp ugt i64 %14, %6
  br i1 %19, label %20, label %_ZNSt6vectorIiSaIiEE6resizeEm.exit

20:                                               ; preds = %18
  %21 = getelementptr inbounds nuw i32, ptr %10, i64 %6
  %.not.i.i = icmp eq ptr %9, %21
  br i1 %.not.i.i, label %_ZNSt6vectorIiSaIiEE6resizeEm.exit, label %22

22:                                               ; preds = %20
  store ptr %21, ptr %8, align 8, !tbaa !7
  br label %_ZNSt6vectorIiSaIiEE6resizeEm.exit

_ZNSt6vectorIiSaIiEE6resizeEm.exit:               ; preds = %16, %18, %20, %22
  %23 = icmp sgt i32 %1, 0
  br i1 %23, label %.lr.ph, label %._crit_edge

.lr.ph:                                           ; preds = %_ZNSt6vectorIiSaIiEE6resizeEm.exit
  %24 = load ptr, ptr %0, align 8, !tbaa !11
  %wide.trip.count = zext nneg i32 %1 to i64
  br label %25

._crit_edge:                                      ; preds = %25, %_ZNSt6vectorIiSaIiEE6resizeEm.exit
  ret void

25:                                               ; preds = %.lr.ph, %25
  %indvars.iv = phi i64 [ 0, %.lr.ph ], [ %indvars.iv.next, %25 ]
  %26 = getelementptr inbounds nuw i32, ptr %24, i64 %indvars.iv
  %27 = trunc nuw nsw i64 %indvars.iv to i32
  store i32 %27, ptr %26, align 4, !tbaa !3
  %indvars.iv.next = add nuw nsw i64 %indvars.iv, 1
  %exitcond.not = icmp eq i64 %indvars.iv.next, %wide.trip.count
  br i1 %exitcond.not, label %._crit_edge, label %25, !llvm.loop !12
}